target datalayout = "e-m:e-p270:32:32-p271:32:32-p272:64:64-i64:64-i128:128-f80:128-n8:16:32:64-S128"
target triple = "x86_64-pc-linux-gnu"

%struct._zval_struct = type { %union._zend_value, %union.anon, %union.anon.2 }
%union._zend_value = type { i64 }
%union.anon = type { i32 }
%union.anon.2 = type { i32 }
%struct._zend_executor_globals = type { %struct._zval_struct, %struct._zval_struct, [32 x ptr], ptr, ptr, %struct._zend_array, %struct._zend_array, ptr, i32, i32, ptr, ptr, ptr, ptr, ptr, ptr, i64, ptr, ptr, i32, i32, i64, i32, i32, i32, i8, i8, %struct.zend_atomic_bool_s, %struct.zend_atomic_bool_s, ptr, i64, ptr, ptr, %struct._zend_array, %struct._zend_array, i32, i8, %struct._zval_struct, %struct._zval_struct, %struct._zend_stack, %struct._zend_stack, %struct._zend_stack, ptr, i32, i32, i64, ptr, ptr, ptr, %struct._zend_objects_store, ptr, ptr, ptr, [3 x %struct._zend_op], ptr, i8, i8, i64, i32, i32, ptr, [16 x %struct._HashTableIterator], ptr, %union._zend_function, %struct._zend_op, %struct._zend_array, i64, %struct.zend_get_gc_buffer, ptr, ptr, ptr, i64, i8, i32, ptr, ptr, i64, %struct._zend_call_stack, i64, i64, [6 x ptr] }
%struct.zend_atomic_bool_s = type { i8 }
%struct._zend_stack = type { i32, i32, i32, ptr }
%struct._zend_objects_store = type { ptr, i32, i32, i32 }
%struct._HashTableIterator = type { ptr, i32, i32 }
%union._zend_function = type { %struct._zend_op_array }
%struct._zend_op_array = type { i8, [3 x i8], i32, ptr, ptr, ptr, i32, i32, ptr, ptr, ptr, ptr, i32, i32, i32, i32, ptr, ptr, ptr, ptr, ptr, i32, i32, ptr, ptr, ptr, i32, i32, i32, i32, ptr, ptr, [6 x ptr] }
%struct._zend_op = type { ptr, %union._znode_op, %union._znode_op, %union._znode_op, i32, i32, i8, i8, i8, i8 }
%union._znode_op = type { i32 }
%struct._zend_array = type { %struct._zend_refcounted_h, %union.anon.4, i32, %union.anon.6, i32, i32, i32, i32, i64, ptr }
%struct._zend_refcounted_h = type { i32, %union.anon.3 }
%union.anon.3 = type { i32 }
%union.anon.4 = type { i32 }
%union.anon.6 = type { ptr }
%struct.zend_get_gc_buffer = type { ptr, ptr, ptr }
%struct._zend_call_stack = type { ptr, i64 }
%struct.anon.7 = type { i8, [3 x i8], i32, ptr, ptr, ptr, i32, i32, ptr, ptr, ptr, ptr, i32 }
%struct.zend_type = type { ptr, i32 }
%struct._zend_execute_data = type { ptr, ptr, ptr, ptr, %struct._zval_struct, ptr, ptr, ptr, ptr }
%struct._zend_string = type { %struct._zend_refcounted_h, i64, i64, [1 x i8] }
%struct._zend_arg_info = type { ptr, %struct.zend_type, ptr }
%struct._zend_internal_arg_info = type { ptr, %struct.zend_type, ptr }

@executor_globals = external global %struct._zend_executor_globals, align 8
@zend_flf_functions = external global ptr, align 8

; Function Attrs: nounwind uwtable
define ptr @get_function_arg_name(ptr noundef %0, i32 noundef %1) #0 {
  %3 = alloca ptr, align 8
  %4 = alloca ptr, align 8
  %5 = alloca i32, align 4
  store ptr %0, ptr %4, align 8
  store i32 %1, ptr %5, align 4
  %6 = load ptr, ptr %4, align 8
  %7 = icmp ne ptr %6, null
  br i1 %7, label %8, label %17

8:                                                ; preds = %2
  %9 = load i32, ptr %5, align 4
  %10 = icmp eq i32 %9, 0
  br i1 %10, label %17, label %11

11:                                               ; preds = %8
  %12 = load ptr, ptr %4, align 8
  %13 = getelementptr inbounds %struct.anon.7, ptr %12, i32 0, i32 6
  %14 = load i32, ptr %13, align 8
  %15 = load i32, ptr %5, align 4
  %16 = icmp ult i32 %14, %15
  br i1 %16, label %17, label %18

17:                                               ; preds = %11, %8, %2
  store ptr null, ptr %3, align 8
  br label %51

18:                                               ; preds = %11
  %19 = load ptr, ptr %4, align 8
  %20 = load i8, ptr %19, align 8
  %21 = zext i8 %20 to i32
  %22 = icmp eq i32 %21, 2
  br i1 %22, label %29, label %23

23:                                               ; preds = %18
  %24 = load ptr, ptr %4, align 8
  %25 = getelementptr inbounds %struct.anon.7, ptr %24, i32 0, i32 2
  %26 = load i32, ptr %25, align 4
  %27 = and i32 %26, 67108864
  %28 = icmp ne i32 %27, 0
  br i1 %28, label %29, label %41

29:                                               ; preds = %23, %18
  %30 = load ptr, ptr %4, align 8
  %31 = getelementptr inbounds %struct.anon.7, ptr %30, i32 0, i32 8
  %32 = load ptr, ptr %31, align 8
  %33 = load i32, ptr %5, align 4
  %34 = sub i32 %33, 1
  %35 = zext i32 %34 to i64
  %36 = getelementptr inbounds %struct._zend_arg_info, ptr %32, i64 %35
  %37 = getelementptr inbounds %struct._zend_arg_info, ptr %36, i32 0, i32 0
  %38 = load ptr, ptr %37, align 8
  %39 = getelementptr inbounds %struct._zend_string, ptr %38, i32 0, i32 3
  %40 = getelementptr inbounds [1 x i8], ptr %39, i64 0, i64 0
  store ptr %40, ptr %3, align 8
  br label %51

41:                                               ; preds = %23
  %42 = load ptr, ptr %4, align 8
  %43 = getelementptr inbounds %struct.anon.7, ptr %42, i32 0, i32 8
  %44 = load ptr, ptr %43, align 8
  %45 = load i32, ptr %5, align 4
  %46 = sub i32 %45, 1
  %47 = zext i32 %46 to i64
  %48 = getelementptr inbounds %struct._zend_internal_arg_info, ptr %44, i64 %47
  %49 = getelementptr inbounds %struct._zend_internal_arg_info, ptr %48, i32 0, i32 0
  %50 = load ptr, ptr %49, align 8
  store ptr %50, ptr %3, align 8
  br label %51

51:                                               ; preds = %41, %29, %17
  %52 = load ptr, ptr %3, align 8
  ret ptr %52
}

; Function Attrs: nounwind uwtable
define ptr @zend_active_function_ex(ptr noundef %0) #0 {
  %2 = alloca ptr, align 8
  %3 = alloca ptr, align 8
  %4 = alloca ptr, align 8
  store ptr %0, ptr %2, align 8
  %5 = load ptr, ptr %2, align 8
  %6 = getelementptr inbounds %struct._zend_execute_data, ptr %5, i32 0, i32 3
  %7 = load ptr, ptr %6, align 8
  store ptr %7, ptr %3, align 8
  %8 = load ptr, ptr %3, align 8
  %9 = load i8, ptr %8, align 8
  %10 = zext i8 %9 to i32
  %11 = icmp ne i32 %10, 1
  br i1 %11, label %12, label %36

12:                                               ; preds = %1
  %13 = load ptr, ptr %2, align 8
  %14 = getelementptr inbounds %struct._zend_execute_data, ptr %13, i32 0, i32 0
  %15 = load ptr, ptr %14, align 8
  store ptr %15, ptr %4, align 8
  %16 = load ptr, ptr %4, align 8
  %17 = getelementptr inbounds %struct._zend_op, ptr %16, i32 0, i32 6
  %18 = load i8, ptr %17, align 4
  %19 = zext i8 %18 to i32
  %20 = icmp sge i32 %19, 204
  br i1 %20, label %21, label %35

21:                                               ; preds = %12
  %22 = load ptr, ptr %4, align 8
  %23 = getelementptr inbounds %struct._zend_op, ptr %22, i32 0, i32 6
  %24 = load i8, ptr %23, align 4
  %25 = zext i8 %24 to i32
  %26 = icmp sle i32 %25, 207
  br i1 %26, label %27, label %35

27:                                               ; preds = %21
  %28 = load ptr, ptr @zend_flf_functions, align 8
  %29 = load ptr, ptr %4, align 8
  %30 = getelementptr inbounds %struct._zend_op, ptr %29, i32 0, i32 4
  %31 = load i32, ptr %30, align 4
  %32 = zext i32 %31 to i64
  %33 = getelementptr inbounds ptr, ptr %28, i64 %32
  %34 = load ptr, ptr %33, align 8
  store ptr %34, ptr %3, align 8
  br label %35

35:                                               ; preds = %27, %21, %12
  br label %36

36:                                               ; preds = %35, %1
  %37 = load ptr, ptr %3, align 8
  ret ptr %37
}

; Function Attrs: nounwind uwtable
define zeroext i1 @zend_is_executing() #0 {
  %1 = load ptr, ptr getelementptr inbounds (%struct._zend_executor_globals, ptr @executor_globals, i32 0, i32 17), align 8
  %2 = icmp ne ptr %1, null
  ret i1 %2
}

; Function Attrs: nounwind uwtable
define ptr @get_active_function_arg_name(i32 noundef %0) #0 {
  %2 = alloca ptr, align 8
  %3 = alloca ptr, align 8
  %4 = alloca ptr, align 8
  %5 = alloca i32, align 4
  %6 = alloca ptr, align 8
  store i32 %0, ptr %5, align 4
  %7 = call zeroext i1 @zend_is_executing()
  br i1 %7, label %9, label %8

8:                                                ; preds = %1
  store ptr null, ptr %4, align 8
  br label %27

9:                                                ; preds = %1
  %10 = load ptr, ptr getelementptr inbounds (%struct._zend_executor_globals, ptr @executor_globals, i32 0, i32 17), align 8
  %11 = getelementptr inbounds %struct._zend_execute_data, ptr %10, i32 0, i32 3
  %12 = load ptr, ptr %11, align 8
  store ptr %12, ptr %3, align 8
  %13 = load ptr, ptr %3, align 8
  %14 = load i8, ptr %13, align 8
  %15 = zext i8 %14 to i32
  %16 = icmp ne i32 %15, 1
  br i1 %16, label %17, label %20

17:                                               ; preds = %9
  %18 = load ptr, ptr getelementptr inbounds (%struct._zend_executor_globals, ptr @executor_globals, i32 0, i32 17), align 8
  %19 = call ptr @zend_active_function_ex(ptr noundef %18)
  store ptr %19, ptr %2, align 8
  br label %22

20:                                               ; preds = %9
  %21 = load ptr, ptr %3, align 8
  store ptr %21, ptr %2, align 8
  br label %22

22:                                               ; preds = %20, %17
  %23 = load ptr, ptr %2, align 8
  store ptr %23, ptr %6, align 8
  %24 = load ptr, ptr %6, align 8
  %25 = load i32, ptr %5, align 4
  %26 = call ptr @get_function_arg_name(ptr noundef %24, i32 noundef %25)
  store ptr %26, ptr %4, align 8
  br label %27

27:                                               ; preds = %22, %8
  %28 = load ptr, ptr %4, align 8
  ret ptr %28
}