; Function Attrs: mustprogress nofree norecurse nosync nounwind willreturn memory(read, inaccessiblemem: none) uwtable
define ptr @get_active_function_arg_name(i32 noundef %0) local_unnamed_addr #4 {
  %2 = load ptr, ptr getelementptr inbounds (%struct._zend_executor_globals, ptr @executor_globals, i64 0, i32 17), align 8
  %.not9 = icmp eq ptr %2, null
  br i1 %.not9, label %get_function_arg_name.exit, label %3

3:                                                ; preds = %1
  %4 = getelementptr inbounds i8, ptr %2, i64 24
  %5 = load ptr, ptr %4, align 8
  %6 = load i8, ptr %5, align 8
  %.not = icmp eq i8 %6, 1
  br i1 %.not, label %zend_active_function_ex.exit, label %7

7:                                                ; preds = %3
  %8 = load ptr, ptr %2, align 8
  %9 = getelementptr inbounds i8, ptr %8, i64 28
  %10 = load i8, ptr %9, align 4
  %11 = and i8 %10, -4
  %or.cond.i = icmp eq i8 %11, -52
  br i1 %or.cond.i, label %12, label %zend_active_function_ex.exit

12:                                               ; preds = %7
  %13 = load ptr, ptr @zend_flf_functions, align 8
  %14 = getelementptr inbounds i8, ptr %8, i64 20
  %15 = load i32, ptr %14, align 4
  %16 = zext i32 %15 to i64
  %17 = getelementptr inbounds ptr, ptr %13, i64 %16
  %18 = load ptr, ptr %17, align 8
  br label %zend_active_function_ex.exit

zend_active_function_ex.exit:                     ; preds = %12, %7, %3
  %.0 = phi ptr [ %5, %3 ], [ %18, %12 ], [ %5, %7 ]
  %19 = icmp eq ptr %.0, null
  %20 = icmp eq i32 %0, 0
  %or.cond.i6 = or i1 %20, %19
  br i1 %or.cond.i6, label %get_function_arg_name.exit, label %21

21:                                               ; preds = %zend_active_function_ex.exit
  %22 = getelementptr inbounds i8, ptr %.0, i64 32
  %23 = load i32, ptr %22, align 8
  %24 = icmp ult i32 %23, %0
  br i1 %24, label %get_function_arg_name.exit, label %25

25:                                               ; preds = %21
  %26 = load i8, ptr %.0, align 8
  %27 = icmp eq i8 %26, 2
  br i1 %27, label %32, label %28

28:                                               ; preds = %25
  %29 = getelementptr inbounds i8, ptr %.0, i64 4
  %30 = load i32, ptr %29, align 4
  %31 = and i32 %30, 67108864
  %.not.i7 = icmp eq i32 %31, 0
  br i1 %.not.i7, label %40, label %32

32:                                               ; preds = %28, %25
  %33 = getelementptr inbounds i8, ptr %.0, i64 40
  %34 = load ptr, ptr %33, align 8
  %35 = add i32 %0, -1
  %36 = zext i32 %35 to i64
  %37 = getelementptr inbounds %struct._zend_arg_info, ptr %34, i64 %36
  %38 = load ptr, ptr %37, align 8
  %39 = getelementptr inbounds i8, ptr %38, i64 24
  br label %get_function_arg_name.exit

40:                                               ; preds = %28
  %41 = getelementptr inbounds i8, ptr %.0, i64 40
  %42 = load ptr, ptr %41, align 8
  %43 = add i32 %0, -1
  %44 = zext i32 %43 to i64
  %45 = getelementptr inbounds %struct._zend_internal_arg_info, ptr %42, i64 %44
  %46 = load ptr, ptr %45, align 8
  br label %get_function_arg_name.exit

get_function_arg_name.exit:                       ; preds = %40, %32, %21, %zend_active_function_ex.exit, %1
  %.05 = phi ptr [ null, %1 ], [ %39, %32 ], [ %46, %40 ], [ null, %21 ], [ null, %zend_active_function_ex.exit ]
  ret ptr %.05
}